target datalayout = "e-m:e-p270:32:32-p271:32:32-p272:64:64-i64:64-i128:128-f80:128-n8:16:32:64-S128"
target triple = "x86_64-pc-linux-gnu"

%struct.text = type { ptr, ptr }

@.str.6 = private unnamed_addr constant [49 x i8] c"Couldn't grow the blob: we may be low on memory\0A\00", align 1

; Function Attrs: nounwind uwtable
define void @textDestroy(ptr noundef %0) #0 {
  %2 = alloca ptr, align 8
  %3 = alloca ptr, align 8
  store ptr %0, ptr %2, align 8, !tbaa !3
  br label %4

4:                                                ; preds = %22, %1
  %5 = load ptr, ptr %2, align 8, !tbaa !3
  %6 = icmp ne ptr %5, null
  br i1 %6, label %7, label %25

7:                                                ; preds = %4
  call void @llvm.lifetime.start.p0(i64 8, ptr %3) #7
  %8 = load ptr, ptr %2, align 8, !tbaa !3
  %9 = getelementptr inbounds nuw %struct.text, ptr %8, i32 0, i32 1
  %10 = load ptr, ptr %9, align 8, !tbaa !8
  store ptr %10, ptr %3, align 8, !tbaa !3
  %11 = load ptr, ptr %2, align 8, !tbaa !3
  %12 = getelementptr inbounds nuw %struct.text, ptr %11, i32 0, i32 0
  %13 = load ptr, ptr %12, align 8, !tbaa !11
  %14 = icmp ne ptr %13, null
  br i1 %14, label %15, label %22

15:                                               ; preds = %7
  %16 = load ptr, ptr %2, align 8, !tbaa !3
  %17 = getelementptr inbounds nuw %struct.text, ptr %16, i32 0, i32 0
  %18 = load ptr, ptr %17, align 8, !tbaa !11
  %19 = call ptr @lineUnlink(ptr noundef %18)
  %20 = load ptr, ptr %2, align 8, !tbaa !3
  %21 = getelementptr inbounds nuw %struct.text, ptr %20, i32 0, i32 0
  store ptr null, ptr %21, align 8, !tbaa !11
  br label %22

22:                                               ; preds = %15, %7
  %23 = load ptr, ptr %2, align 8, !tbaa !3
  call void @free(ptr noundef %23) #7
  %24 = load ptr, ptr %3, align 8, !tbaa !3
  store ptr %24, ptr %2, align 8, !tbaa !3
  call void @llvm.lifetime.end.p0(i64 8, ptr %3) #7
  br label %4

25:                                               ; preds = %4
  ret void
}

; Function Attrs: nounwind uwtable
define internal ptr @textIterate(ptr noundef %0, ptr noundef %1, ptr noundef %2, i32 noundef %3) #0 {
  %5 = alloca ptr, align 8
  %6 = alloca ptr, align 8
  %7 = alloca ptr, align 8
  %8 = alloca i32, align 4
  store ptr %0, ptr %5, align 8, !tbaa !3
  store ptr %1, ptr %6, align 8, !tbaa !20
  store ptr %2, ptr %7, align 8, !tbaa !20
  store i32 %3, ptr %8, align 4, !tbaa !14
  %9 = load i32, ptr %8, align 4, !tbaa !14
  %10 = icmp ne i32 %9, 0
  br i1 %10, label %11, label %37

11:                                               ; preds = %4
  br label %12

12:                                               ; preds = %32, %11
  %13 = load ptr, ptr %5, align 8, !tbaa !3
  %14 = icmp ne ptr %13, null
  br i1 %14, label %15, label %36

15:                                               ; preds = %12
  %16 = load ptr, ptr %6, align 8, !tbaa !20
  %17 = load ptr, ptr %5, align 8, !tbaa !3
  %18 = getelementptr inbounds nuw %struct.text, ptr %17, i32 0, i32 0
  %19 = load ptr, ptr %18, align 8, !tbaa !11
  %20 = load ptr, ptr %7, align 8, !tbaa !20
  call void %16(ptr noundef %19, ptr noundef %20)
  %21 = load ptr, ptr %5, align 8, !tbaa !3
  %22 = getelementptr inbounds nuw %struct.text, ptr %21, i32 0, i32 0
  %23 = load ptr, ptr %22, align 8, !tbaa !11
  %24 = icmp ne ptr %23, null
  br i1 %24, label %25, label %32

25:                                               ; preds = %15
  %26 = load ptr, ptr %5, align 8, !tbaa !3
  %27 = getelementptr inbounds nuw %struct.text, ptr %26, i32 0, i32 0
  %28 = load ptr, ptr %27, align 8, !tbaa !11
  %29 = call ptr @lineUnlink(ptr noundef %28)
  %30 = load ptr, ptr %5, align 8, !tbaa !3
  %31 = getelementptr inbounds nuw %struct.text, ptr %30, i32 0, i32 0
  store ptr null, ptr %31, align 8, !tbaa !11
  br label %32

32:                                               ; preds = %25, %15
  %33 = load ptr, ptr %5, align 8, !tbaa !3
  %34 = getelementptr inbounds nuw %struct.text, ptr %33, i32 0, i32 1
  %35 = load ptr, ptr %34, align 8, !tbaa !8
  store ptr %35, ptr %5, align 8, !tbaa !3
  br label %12

36:                                               ; preds = %12
  br label %51

37:                                               ; preds = %4
  br label %38

38:                                               ; preds = %41, %37
  %39 = load ptr, ptr %5, align 8, !tbaa !3
  %40 = icmp ne ptr %39, null
  br i1 %40, label %41, label %50

41:                                               ; preds = %38
  %42 = load ptr, ptr %6, align 8, !tbaa !20
  %43 = load ptr, ptr %5, align 8, !tbaa !3
  %44 = getelementptr inbounds nuw %struct.text, ptr %43, i32 0, i32 0
  %45 = load ptr, ptr %44, align 8, !tbaa !11
  %46 = load ptr, ptr %7, align 8, !tbaa !20
  call void %42(ptr noundef %45, ptr noundef %46)
  %47 = load ptr, ptr %5, align 8, !tbaa !3
  %48 = getelementptr inbounds nuw %struct.text, ptr %47, i32 0, i32 1
  %49 = load ptr, ptr %48, align 8, !tbaa !8
  store ptr %49, ptr %5, align 8, !tbaa !3
  br label %38

50:                                               ; preds = %38
  br label %51

51:                                               ; preds = %50, %36
  %52 = load ptr, ptr %7, align 8, !tbaa !20
  ret ptr %52
}

; Function Attrs: nounwind uwtable
define ptr @textToBlob(ptr noundef %0, ptr noundef %1, i32 noundef %2) #0 {
  %4 = alloca ptr, align 8
  %5 = alloca ptr, align 8
  %6 = alloca ptr, align 8
  %7 = alloca i32, align 4
  %8 = alloca i64, align 8
  %9 = alloca ptr, align 8
  %10 = alloca i32, align 4
  store ptr %0, ptr %5, align 8, !tbaa !3
  store ptr %1, ptr %6, align 8, !tbaa !16
  store i32 %2, ptr %7, align 4, !tbaa !14
  call void @llvm.lifetime.start.p0(i64 8, ptr %8) #7
  call void @llvm.lifetime.start.p0(i64 8, ptr %9) #7
  %11 = load ptr, ptr %5, align 8, !tbaa !3
  %12 = icmp eq ptr %11, null
  br i1 %12, label %13, label %14

13:                                               ; preds = %3
  store ptr null, ptr %4, align 8
  store i32 1, ptr %10, align 4
  br label %63

14:                                               ; preds = %3
  store i64 0, ptr %8, align 8, !tbaa !18
  %15 = load ptr, ptr %5, align 8, !tbaa !3
  %16 = call ptr @textIterate(ptr noundef %15, ptr noundef @getLength, ptr noundef %8, i32 noundef 0)
  %17 = load i64, ptr %8, align 8, !tbaa !18
  %18 = icmp eq i64 %17, 0
  br i1 %18, label %19, label %21

19:                                               ; preds = %14
  %20 = load ptr, ptr %6, align 8, !tbaa !16
  store ptr %20, ptr %4, align 8
  store i32 1, ptr %10, align 4
  br label %63

21:                                               ; preds = %14
  %22 = load ptr, ptr %6, align 8, !tbaa !16
  store ptr %22, ptr %9, align 8, !tbaa !16
  %23 = load ptr, ptr %6, align 8, !tbaa !16
  %24 = icmp eq ptr %23, null
  br i1 %24, label %25, label %31

25:                                               ; preds = %21
  %26 = call ptr @blobCreate()
  store ptr %26, ptr %6, align 8, !tbaa !16
  %27 = load ptr, ptr %6, align 8, !tbaa !16
  %28 = icmp eq ptr %27, null
  br i1 %28, label %29, label %30

29:                                               ; preds = %25
  store ptr null, ptr %4, align 8
  store i32 1, ptr %10, align 4
  br label %63

30:                                               ; preds = %25
  br label %31

31:                                               ; preds = %30, %21
  %32 = load ptr, ptr %6, align 8, !tbaa !16
  %33 = load i64, ptr %8, align 8, !tbaa !18
  %34 = call i32 @blobGrow(ptr noundef %32, i64 noundef %33)
  %35 = icmp ne i32 %34, 0
  br i1 %35, label %36, label %42

36:                                               ; preds = %31
  call void (ptr, ...) @cli_warnmsg(ptr noundef @.str.6)
  %37 = load ptr, ptr %9, align 8, !tbaa !16
  %38 = icmp eq ptr %37, null
  br i1 %38, label %39, label %41

39:                                               ; preds = %36
  %40 = load ptr, ptr %6, align 8, !tbaa !16
  call void @blobDestroy(ptr noundef %40)
  br label %41

41:                                               ; preds = %39, %36
  store ptr null, ptr %4, align 8
  store i32 1, ptr %10, align 4
  br label %63

42:                                               ; preds = %31
  %43 = load ptr, ptr %5, align 8, !tbaa !3
  %44 = load ptr, ptr %6, align 8, !tbaa !16
  %45 = load i32, ptr %7, align 4, !tbaa !14
  %46 = call ptr @textIterate(ptr noundef %43, ptr noundef @addToBlob, ptr noundef %44, i32 noundef %45)
  %47 = load i32, ptr %7, align 4, !tbaa !14
  %48 = icmp ne i32 %47, 0
  br i1 %48, label %49, label %60

49:                                               ; preds = %42
  %50 = load ptr, ptr %5, align 8, !tbaa !3
  %51 = getelementptr inbounds nuw %struct.text, ptr %50, i32 0, i32 1
  %52 = load ptr, ptr %51, align 8, !tbaa !8
  %53 = icmp ne ptr %52, null
  br i1 %53, label %54, label %60

54:                                               ; preds = %49
  %55 = load ptr, ptr %5, align 8, !tbaa !3
  %56 = getelementptr inbounds nuw %struct.text, ptr %55, i32 0, i32 1
  %57 = load ptr, ptr %56, align 8, !tbaa !8
  call void @textDestroy(ptr noundef %57)
  %58 = load ptr, ptr %5, align 8, !tbaa !3
  %59 = getelementptr inbounds nuw %struct.text, ptr %58, i32 0, i32 1
  store ptr null, ptr %59, align 8, !tbaa !8
  br label %60

60:                                               ; preds = %54, %49, %42
  %61 = load ptr, ptr %6, align 8, !tbaa !16
  call void @blobClose(ptr noundef %61)
  %62 = load ptr, ptr %6, align 8, !tbaa !16
  store ptr %62, ptr %4, align 8
  store i32 1, ptr %10, align 4
  br label %63

63:                                               ; preds = %60, %41, %29, %19, %13
  call void @llvm.lifetime.end.p0(i64 8, ptr %9) #7
  call void @llvm.lifetime.end.p0(i64 8, ptr %8) #7
  %64 = load ptr, ptr %4, align 8
  ret ptr %64
}