; Function Attrs: nounwind uwtable
define noundef ptr @textToBlob(ptr noundef %0, ptr noundef %1, i32 noundef %2) local_unnamed_addr #0 {
  %4 = icmp eq ptr %0, null
  br i1 %4, label %56, label %.preheader.i

.preheader.i:                                     ; preds = %3, %getLength.exit
  %.037 = phi i64 [ %storemerge.i, %getLength.exit ], [ 0, %3 ]
  %.121.i = phi ptr [ %14, %getLength.exit ], [ %0, %3 ]
  %5 = load ptr, ptr %.121.i, align 8, !tbaa !10
  %.not.i30 = icmp eq ptr %5, null
  br i1 %.not.i30, label %11, label %6

6:                                                ; preds = %.preheader.i
  %7 = tail call ptr @lineGetData(ptr noundef nonnull %5) #7
  %8 = tail call i64 @strlen(ptr noundef nonnull dereferenceable(1) %7) #10
  %9 = add i64 %.037, 1
  %10 = add i64 %9, %8
  br label %getLength.exit

11:                                               ; preds = %.preheader.i
  %12 = add i64 %.037, 1
  br label %getLength.exit

getLength.exit:                                   ; preds = %6, %11
  %storemerge.i = phi i64 [ %12, %11 ], [ %10, %6 ]
  %13 = getelementptr inbounds nuw i8, ptr %.121.i, i64 8
  %14 = load ptr, ptr %13, align 8, !tbaa !3
  %.not15.i = icmp eq ptr %14, null
  br i1 %.not15.i, label %textIterate.exit, label %.preheader.i

textIterate.exit:                                 ; preds = %getLength.exit
  %15 = icmp eq i64 %storemerge.i, 0
  br i1 %15, label %56, label %16

16:                                               ; preds = %textIterate.exit
  %17 = icmp eq ptr %1, null
  br i1 %17, label %18, label %21

18:                                               ; preds = %16
  %19 = tail call ptr @blobCreate() #7
  %20 = icmp eq ptr %19, null
  br i1 %20, label %56, label %21

21:                                               ; preds = %18, %16
  %.018 = phi ptr [ %19, %18 ], [ %1, %16 ]
  %22 = tail call i32 @blobGrow(ptr noundef nonnull %.018, i64 noundef %storemerge.i) #7
  %.not = icmp eq i32 %22, 0
  br i1 %.not, label %25, label %23

23:                                               ; preds = %21
  tail call void (ptr, ...) @cli_warnmsg(ptr noundef nonnull @.str.6) #7
  br i1 %17, label %24, label %56

24:                                               ; preds = %23
  tail call void @blobDestroy(ptr noundef nonnull %.018) #7
  br label %56

25:                                               ; preds = %21
  %.not.i = icmp eq i32 %2, 0
  br i1 %.not.i, label %.preheader.i25, label %.preheader18.i

.preheader18.i:                                   ; preds = %25, %35
  %.020.i = phi ptr [ %37, %35 ], [ %0, %25 ]
  %26 = load ptr, ptr %.020.i, align 8, !tbaa !10
  %.not.i32 = icmp eq ptr %26, null
  br i1 %.not.i32, label %addToBlob.exit33, label %27

27:                                               ; preds = %.preheader18.i
  %28 = tail call ptr @lineGetData(ptr noundef nonnull %26) #7
  %29 = tail call i64 @strlen(ptr noundef nonnull dereferenceable(1) %28) #10
  %30 = tail call i32 @blobAddData(ptr noundef nonnull %.018, ptr noundef nonnull %28, i64 noundef %29) #7
  br label %addToBlob.exit33

addToBlob.exit33:                                 ; preds = %.preheader18.i, %27
  %31 = tail call i32 @blobAddData(ptr noundef nonnull %.018, ptr noundef nonnull @.str.14, i64 noundef 1) #7
  %32 = load ptr, ptr %.020.i, align 8, !tbaa !10
  %.not17.i = icmp eq ptr %32, null
  br i1 %.not17.i, label %35, label %33

33:                                               ; preds = %addToBlob.exit33
  %34 = tail call ptr @lineUnlink(ptr noundef nonnull %32) #7
  store ptr null, ptr %.020.i, align 8, !tbaa !10
  br label %35

35:                                               ; preds = %33, %addToBlob.exit33
  %36 = getelementptr inbounds nuw i8, ptr %.020.i, i64 8
  %37 = load ptr, ptr %36, align 8, !tbaa !3
  %.not16.i = icmp eq ptr %37, null
  br i1 %.not16.i, label %textIterate.exit28, label %.preheader18.i

.preheader.i25:                                   ; preds = %25, %addToBlob.exit
  %.121.i26 = phi ptr [ %45, %addToBlob.exit ], [ %0, %25 ]
  %38 = load ptr, ptr %.121.i26, align 8, !tbaa !10
  %.not.i31 = icmp eq ptr %38, null
  br i1 %.not.i31, label %addToBlob.exit, label %39

39:                                               ; preds = %.preheader.i25
  %40 = tail call ptr @lineGetData(ptr noundef nonnull %38) #7
  %41 = tail call i64 @strlen(ptr noundef nonnull dereferenceable(1) %40) #10
  %42 = tail call i32 @blobAddData(ptr noundef nonnull %.018, ptr noundef nonnull %40, i64 noundef %41) #7
  br label %addToBlob.exit

addToBlob.exit:                                   ; preds = %.preheader.i25, %39
  %43 = tail call i32 @blobAddData(ptr noundef nonnull %.018, ptr noundef nonnull @.str.14, i64 noundef 1) #7
  %44 = getelementptr inbounds nuw i8, ptr %.121.i26, i64 8
  %45 = load ptr, ptr %44, align 8, !tbaa !3
  %.not15.i27 = icmp eq ptr %45, null
  br i1 %.not15.i27, label %textIterate.exit28, label %.preheader.i25

textIterate.exit28:                               ; preds = %35, %addToBlob.exit
  br i1 %.not.i, label %55, label %46

46:                                               ; preds = %textIterate.exit28
  %47 = getelementptr inbounds nuw i8, ptr %0, i64 8
  %48 = load ptr, ptr %47, align 8, !tbaa !3
  %.not24 = icmp eq ptr %48, null
  br i1 %.not24, label %55, label %.lr.ph.i

.lr.ph.i:                                         ; preds = %46, %54
  %.010.i = phi ptr [ %50, %54 ], [ %48, %46 ]
  %49 = getelementptr inbounds nuw i8, ptr %.010.i, i64 8
  %50 = load ptr, ptr %49, align 8, !tbaa !3
  %51 = load ptr, ptr %.010.i, align 8, !tbaa !10
  %.not8.i = icmp eq ptr %51, null
  br i1 %.not8.i, label %54, label %52

52:                                               ; preds = %.lr.ph.i
  %53 = tail call ptr @lineUnlink(ptr noundef nonnull %51) #7
  br label %54

54:                                               ; preds = %52, %.lr.ph.i
  tail call void @free(ptr noundef nonnull %.010.i) #7
  %.not.i29 = icmp eq ptr %50, null
  br i1 %.not.i29, label %textDestroy.exit, label %.lr.ph.i

textDestroy.exit:                                 ; preds = %54
  store ptr null, ptr %47, align 8, !tbaa !3
  br label %55

55:                                               ; preds = %textDestroy.exit, %46, %textIterate.exit28
  tail call void @blobClose(ptr noundef nonnull %.018) #7
  br label %56

56:                                               ; preds = %23, %24, %18, %textIterate.exit, %3, %55
  %.0 = phi ptr [ %.018, %55 ], [ null, %3 ], [ %1, %textIterate.exit ], [ null, %18 ], [ null, %24 ], [ null, %23 ]
  ret ptr %.0
}